ccopy_reg
_reconstructor
p1
(cargparse
Namespace
p2
c__builtin__
object
p3
NtRp4
(dp5
S'learning_rate'
p6
F0.0025000000000000001
sS'batch_size'
p7
I1000
sS'checkpoint_step'
p8
I1
sS'learning_rate_d'
p9
F0.0001
sS'beta1'
p10
F0.5
sS'display_step'
p11
I1
sS'training_epochs'
p12
I9999
sS'keep_prob'
p13
F0.84999999999999998
sS'learning_rate_vae'
p14
F0.00050000000000000001
sb.